---
triple:          'arm64-apple-darwin'
binary-path:     program
relocations:
  - { offsetInCU: 0xA4AE, offset: 0xA4AE, size: 0x8, addend: 0x0, symName: __ZNSt3__121__unwrap_and_dispatchB7v160006INS_10__overloadINS_11__move_loopINS_17_ClassicAlgPolicyEEENS_14__move_trivialEEEP10ProgrammerS8_S8_Li0EEENS_4pairIT0_T2_EESA_T1_SB_, symObjAddr: 0x1B30, symBinAddr: 0x1000030BC, symSize: 0xB0 }
  - { offsetInCU: 0xAD16, offset: 0xAD16, size: 0x8, addend: 0x0, symName: __ZNSt3__120__throw_out_of_rangeB7v160006EPKc, symObjAddr: 0x174C, symBinAddr: 0x100002CD8, symSize: 0x50 }
  - { offsetInCU: 0xAD55, offset: 0xAD55, size: 0x8, addend: 0x0, symName: __ZNSt3__120__throw_length_errorB7v160006EPKc, symObjAddr: 0x17FC, symBinAddr: 0x100002D88, symSize: 0x50 }
  - { offsetInCU: 0xB14B, offset: 0xB14B, size: 0x8, addend: 0x0, symName: __ZSt28__throw_bad_array_new_lengthB7v160006v, symObjAddr: 0x1710, symBinAddr: 0x100002C9C, symSize: 0x28 }
  - { offsetInCU: 0xE104, offset: 0xE104, size: 0x8, addend: 0x0, symName: __ZN10DepartmentC2Ev, symObjAddr: 0x0, symBinAddr: 0x10000158C, symSize: 0x94 }
  - { offsetInCU: 0xE3DF, offset: 0xE3DF, size: 0x8, addend: 0x0, symName: __ZN10DepartmentC1Ev, symObjAddr: 0xA0, symBinAddr: 0x10000162C, symSize: 0x94 }
  - { offsetInCU: 0xE697, offset: 0xE697, size: 0x8, addend: 0x0, symName: __ZN10DepartmentC2ENSt3__112basic_stringIcNS0_11char_traitsIcEENS0_9allocatorIcEEEEi, symObjAddr: 0x134, symBinAddr: 0x1000016C0, symSize: 0xA8 }
  - { offsetInCU: 0xE94A, offset: 0xE94A, size: 0x8, addend: 0x0, symName: __ZN10DepartmentC1ENSt3__112basic_stringIcNS0_11char_traitsIcEENS0_9allocatorIcEEEEi, symObjAddr: 0x1DC, symBinAddr: 0x100001768, symSize: 0xA8 }
  - { offsetInCU: 0xECC1, offset: 0xECC1, size: 0x8, addend: 0x0, symName: __ZN10Department18CalculateMaxSalaryENS_10StaffTypesE, symObjAddr: 0x284, symBinAddr: 0x100001810, symSize: 0x220 }
  - { offsetInCU: 0xEEA3, offset: 0xEEA3, size: 0x8, addend: 0x0, symName: __ZNKSt3__16vectorI17SoftwareArchitectNS_9allocatorIS1_EEE20__throw_out_of_rangeB7v160006Ev, symObjAddr: 0x17D4, symBinAddr: 0x100002D60, symSize: 0x14 }
  - { offsetInCU: 0xEECD, offset: 0xEECD, size: 0x8, addend: 0x0, symName: __ZNKSt3__16vectorIP8EmployeeNS_9allocatorIS2_EEE20__throw_length_errorB7v160006Ev, symObjAddr: 0x17E8, symBinAddr: 0x100002D74, symSize: 0x14 }
  - { offsetInCU: 0xEED7, offset: 0xEED7, size: 0x8, addend: 0x0, symName: __ZNKSt3__16vectorI8EmployeeNS_9allocatorIS1_EEE20__throw_out_of_rangeB7v160006Ev, symObjAddr: 0x1738, symBinAddr: 0x100002CC4, symSize: 0x14 }
  - { offsetInCU: 0xEF01, offset: 0xEF01, size: 0x8, addend: 0x0, symName: __ZNSt3__120__throw_out_of_rangeB7v160006EPKc, symObjAddr: 0x174C, symBinAddr: 0x100002CD8, symSize: 0x50 }
  - { offsetInCU: 0xEF0B, offset: 0xEF0B, size: 0x8, addend: 0x0, symName: __ZNKSt3__16vectorI10ProgrammerNS_9allocatorIS1_EEE20__throw_out_of_rangeB7v160006Ev, symObjAddr: 0x17C0, symBinAddr: 0x100002D4C, symSize: 0x14 }
  - { offsetInCU: 0xEF35, offset: 0xEF35, size: 0x8, addend: 0x0, symName: __ZNKSt3__16vectorI17SoftwareArchitectNS_9allocatorIS1_EEE20__throw_out_of_rangeB7v160006Ev, symObjAddr: 0x17D4, symBinAddr: 0x100002D60, symSize: 0x14 }
  - { offsetInCU: 0xEF3F, offset: 0xEF3F, size: 0x8, addend: 0x0, symName: __ZN10Department22CalculateAverageSalaryENS_10StaffTypesE, symObjAddr: 0x4A4, symBinAddr: 0x100001A30, symSize: 0x16C }
  - { offsetInCU: 0xF3BC, offset: 0xF3BC, size: 0x8, addend: 0x0, symName: __ZN10Department11getAllStaffEv, symObjAddr: 0x610, symBinAddr: 0x100001B9C, symSize: 0x344 }
  - { offsetInCU: 0x10356, offset: 0x10356, size: 0x8, addend: 0x0, symName: __ZN10Department24getProgrammersByLanguageENSt3__112basic_stringIcNS0_11char_traitsIcEENS0_9allocatorIcEEEE, symObjAddr: 0x954, symBinAddr: 0x100001EE0, symSize: 0x264 }
  - { offsetInCU: 0x10360, offset: 0x10360, size: 0x8, addend: 0x0, symName: __ZNKSt3__16vectorIP8EmployeeNS_9allocatorIS2_EEE20__throw_length_errorB7v160006Ev, symObjAddr: 0x17E8, symBinAddr: 0x100002D74, symSize: 0x14 }
  - { offsetInCU: 0x1038A, offset: 0x1038A, size: 0x8, addend: 0x0, symName: __ZNSt3__120__throw_length_errorB7v160006EPKc, symObjAddr: 0x17FC, symBinAddr: 0x100002D88, symSize: 0x50 }
  - { offsetInCU: 0x10590, offset: 0x10590, size: 0x8, addend: 0x0, symName: __ZN10Department24getProgrammersByLanguageENSt3__112basic_stringIcNS0_11char_traitsIcEENS0_9allocatorIcEEEE, symObjAddr: 0x954, symBinAddr: 0x100001EE0, symSize: 0x264 }
  - { offsetInCU: 0x110DB, offset: 0x110DB, size: 0x8, addend: 0x0, symName: __ZN10ProgrammerC2ERKS_, symObjAddr: 0x15BC, symBinAddr: 0x100002B48, symSize: 0xF0 }
  - { offsetInCU: 0x1149B, offset: 0x1149B, size: 0x8, addend: 0x0, symName: __ZNSt3__16vectorI10ProgrammerNS_9allocatorIS1_EEE21__push_back_slow_pathIRKS1_EEvOT_, symObjAddr: 0x1870, symBinAddr: 0x100002DFC, symSize: 0x1C4 }
  - { offsetInCU: 0x11BD1, offset: 0x11BD1, size: 0x8, addend: 0x0, symName: __ZN10ProgrammerD1Ev, symObjAddr: 0xBB8, symBinAddr: 0x100002144, symSize: 0x94 }
  - { offsetInCU: 0x12329, offset: 0x12329, size: 0x8, addend: 0x0, symName: __ZN10Department14RemoveEmployeeE8Employee, symObjAddr: 0xC4C, symBinAddr: 0x1000021D8, symSize: 0x240 }
  - { offsetInCU: 0x126D6, offset: 0x126D6, size: 0x8, addend: 0x0, symName: __ZNSt3__16vectorI8EmployeeNS_9allocatorIS1_EEE5eraseB7v160006ENS_11__wrap_iterIPKS1_EE, symObjAddr: 0xE8C, symBinAddr: 0x100002418, symSize: 0x104 }
  - { offsetInCU: 0x12C26, offset: 0x12C26, size: 0x8, addend: 0x0, symName: __ZNSt3__19allocatorI10ProgrammerE7destroyB7v160006EPS1_, symObjAddr: 0x1A9C, symBinAddr: 0x100003028, symSize: 0x94 }
  - { offsetInCU: 0x13226, offset: 0x13226, size: 0x8, addend: 0x0, symName: __ZNSt3__16vectorI17SoftwareArchitectNS_9allocatorIS1_EEE5eraseB7v160006ENS_11__wrap_iterIPKS1_EE, symObjAddr: 0xF90, symBinAddr: 0x10000251C, symSize: 0x130 }
  - { offsetInCU: 0x13F54, offset: 0x13F54, size: 0x8, addend: 0x0, symName: __ZN10Department16getAllProjectIDsEv, symObjAddr: 0x10C0, symBinAddr: 0x10000264C, symSize: 0x348 }
  - { offsetInCU: 0x14AAE, offset: 0x14AAE, size: 0x8, addend: 0x0, symName: __ZN10Department7checkIDEiPNSt3__16vectorIiNS0_9allocatorIiEEEE, symObjAddr: 0x1408, symBinAddr: 0x100002994, symSize: 0x5C }
  - { offsetInCU: 0x14AB8, offset: 0x14AB8, size: 0x8, addend: 0x0, symName: __ZNKSt3__16vectorIiNS_9allocatorIiEEE20__throw_length_errorB7v160006Ev, symObjAddr: 0x1BE0, symBinAddr: 0x10000316C, symSize: 0x14 }
  - { offsetInCU: 0x14AE2, offset: 0x14AE2, size: 0x8, addend: 0x0, symName: __ZNSt3__16vectorI17SoftwareArchitectNS_9allocatorIS1_EEE16__destroy_vectorclB7v160006Ev, symObjAddr: 0x1BF4, symBinAddr: 0x100003180, symSize: 0xCC }
  - { offsetInCU: 0x14AEC, offset: 0x14AEC, size: 0x8, addend: 0x0, symName: __ZN10Department7checkIDEiPNSt3__16vectorIiNS0_9allocatorIiEEEE, symObjAddr: 0x1408, symBinAddr: 0x100002994, symSize: 0x5C }
  - { offsetInCU: 0x14D0E, offset: 0x14D0E, size: 0x8, addend: 0x0, symName: __ZN10DepartmentD2Ev, symObjAddr: 0x1464, symBinAddr: 0x1000029F0, symSize: 0x154 }
  - { offsetInCU: 0x156D3, offset: 0x156D3, size: 0x8, addend: 0x0, symName: __ZNSt3__16vectorI17SoftwareArchitectNS_9allocatorIS1_EEE16__destroy_vectorclB7v160006Ev, symObjAddr: 0x1BF4, symBinAddr: 0x100003180, symSize: 0xCC }
  - { offsetInCU: 0x15CA2, offset: 0x15CA2, size: 0x8, addend: 0x0, symName: __ZN10DepartmentD1Ev, symObjAddr: 0x15B8, symBinAddr: 0x100002B44, symSize: 0x4 }
  - { offsetInCU: 0x15CD0, offset: 0x15CD0, size: 0x8, addend: 0x0, symName: __ZN10DepartmentD1Ev, symObjAddr: 0x15B8, symBinAddr: 0x100002B44, symSize: 0x4 }
  - { offsetInCU: 0x15D02, offset: 0x15D02, size: 0x8, addend: 0x0, symName: __ZN8EmployeeD2Ev, symObjAddr: 0x16AC, symBinAddr: 0x100002C38, symSize: 0x64 }
  - { offsetInCU: 0x16083, offset: 0x16083, size: 0x8, addend: 0x0, symName: __ZNSt12out_of_rangeC1B7v160006EPKc, symObjAddr: 0x179C, symBinAddr: 0x100002D28, symSize: 0x24 }
  - { offsetInCU: 0x16108, offset: 0x16108, size: 0x8, addend: 0x0, symName: __ZNSt12length_errorC1B7v160006EPKc, symObjAddr: 0x184C, symBinAddr: 0x100002DD8, symSize: 0x24 }
  - { offsetInCU: 0x164A7, offset: 0x164A7, size: 0x8, addend: 0x0, symName: __ZNKSt3__16vectorI10ProgrammerNS_9allocatorIS1_EEE20__throw_length_errorB7v160006Ev, symObjAddr: 0x1A88, symBinAddr: 0x100003014, symSize: 0x14 }
  - { offsetInCU: 0x164D1, offset: 0x164D1, size: 0x8, addend: 0x0, symName: __ZNSt3__19allocatorI10ProgrammerE7destroyB7v160006EPS1_, symObjAddr: 0x1A9C, symBinAddr: 0x100003028, symSize: 0x94 }
  - { offsetInCU: 0x164DB, offset: 0x164DB, size: 0x8, addend: 0x0, symName: __ZNSt3__114__split_bufferI10ProgrammerRNS_9allocatorIS1_EEED1Ev, symObjAddr: 0x1A34, symBinAddr: 0x100002FC0, symSize: 0x54 }
  - { offsetInCU: 0x295F, offset: 0x190E8, size: 0x8, addend: 0x0, symName: __ZNSt3__124__put_character_sequenceB7v160006IcNS_11char_traitsIcEEEERNS_13basic_ostreamIT_T0_EES7_PKS4_m, symObjAddr: 0x384, symBinAddr: 0x1000035C4, symSize: 0x168 }
  - { offsetInCU: 0x4AAE, offset: 0x1B237, size: 0x8, addend: 0x0, symName: __ZNSt3__116__pad_and_outputB7v160006IcNS_11char_traitsIcEEEENS_19ostreambuf_iteratorIT_T0_EES6_PKS4_S8_S8_RNS_8ios_baseES4_, symObjAddr: 0x4EC, symBinAddr: 0x10000372C, symSize: 0x19C }
  - { offsetInCU: 0x75BF, offset: 0x1DD48, size: 0x8, addend: 0x0, symName: __ZN8EmployeeC2Ev, symObjAddr: 0x0, symBinAddr: 0x10000324C, symSize: 0x9C }
  - { offsetInCU: 0x7828, offset: 0x1DFB1, size: 0x8, addend: 0x0, symName: __ZN8EmployeeC2Ev.cold.1, symObjAddr: 0x710, symBinAddr: 0x100006D54, symSize: 0x40 }
  - { offsetInCU: 0x7908, offset: 0x1E091, size: 0x8, addend: 0x0, symName: __ZN8EmployeeC1Ev, symObjAddr: 0xA8, symBinAddr: 0x1000032E8, symSize: 0x4 }
  - { offsetInCU: 0x7936, offset: 0x1E0BF, size: 0x8, addend: 0x0, symName: __ZN8EmployeeC1Ev, symObjAddr: 0xA8, symBinAddr: 0x1000032E8, symSize: 0x4 }
  - { offsetInCU: 0x7949, offset: 0x1E0D2, size: 0x8, addend: 0x0, symName: __ZN8EmployeeC2ENSt3__112basic_stringIcNS0_11char_traitsIcEENS0_9allocatorIcEEEEiS6_di, symObjAddr: 0xAC, symBinAddr: 0x1000032EC, symSize: 0xC8 }
  - { offsetInCU: 0x7BA2, offset: 0x1E32B, size: 0x8, addend: 0x0, symName: __ZN8EmployeeC2ENSt3__112basic_stringIcNS0_11char_traitsIcEENS0_9allocatorIcEEEEiS6_di.cold.1, symObjAddr: 0x750, symBinAddr: 0x100006D94, symSize: 0x40 }
  - { offsetInCU: 0x7C82, offset: 0x1E40B, size: 0x8, addend: 0x0, symName: __ZN8EmployeeC1ENSt3__112basic_stringIcNS0_11char_traitsIcEENS0_9allocatorIcEEEEiS6_di, symObjAddr: 0x174, symBinAddr: 0x1000033B4, symSize: 0x4 }
  - { offsetInCU: 0x7CF9, offset: 0x1E482, size: 0x8, addend: 0x0, symName: __ZN8EmployeeC1ENSt3__112basic_stringIcNS0_11char_traitsIcEENS0_9allocatorIcEEEEiS6_di, symObjAddr: 0x174, symBinAddr: 0x1000033B4, symSize: 0x4 }
  - { offsetInCU: 0x7D31, offset: 0x1E4BA, size: 0x8, addend: 0x0, symName: __ZNK8Employee7getNameEv, symObjAddr: 0x178, symBinAddr: 0x1000033B8, symSize: 0xC }
  - { offsetInCU: 0x7D53, offset: 0x1E4DC, size: 0x8, addend: 0x0, symName: __ZNK8Employee5getIDEv, symObjAddr: 0x184, symBinAddr: 0x1000033C4, symSize: 0x8 }
  - { offsetInCU: 0x7D75, offset: 0x1E4FE, size: 0x8, addend: 0x0, symName: __ZNK8Employee11getJobTitleEv, symObjAddr: 0x18C, symBinAddr: 0x1000033CC, symSize: 0xC }
  - { offsetInCU: 0x7D97, offset: 0x1E520, size: 0x8, addend: 0x0, symName: __ZNK8Employee9getSalaryEv, symObjAddr: 0x198, symBinAddr: 0x1000033D8, symSize: 0x8 }
  - { offsetInCU: 0x7DB7, offset: 0x1E540, size: 0x8, addend: 0x0, symName: __ZNK8Employee11getHireYearEv, symObjAddr: 0x1A0, symBinAddr: 0x1000033E0, symSize: 0x8 }
  - { offsetInCU: 0x7F8B, offset: 0x1E714, size: 0x8, addend: 0x0, symName: __ZN8Employee5printEv, symObjAddr: 0x1A8, symBinAddr: 0x1000033E8, symSize: 0x1DC }
  - { offsetInCU: 0x8BF5, offset: 0x1F37E, size: 0x8, addend: 0x0, symName: __ZNKSt3__112basic_stringIcNS_11char_traitsIcEENS_9allocatorIcEEE20__throw_length_errorB7v160006Ev, symObjAddr: 0x688, symBinAddr: 0x1000038C8, symSize: 0x14 }
  - { offsetInCU: 0x8C8A, offset: 0x1F413, size: 0x8, addend: 0x0, symName: _OUTLINED_FUNCTION_0, symObjAddr: 0x790, symBinAddr: 0x1000038DC, symSize: 0x8 }
  - { offsetInCU: 0xA474, offset: 0x298A3, size: 0x8, addend: 0x0, symName: __ZNSt3__142__uninitialized_allocator_move_if_noexceptB7v160006INS_9allocatorI8EmployeeEENS_16reverse_iteratorIPS2_EES6_S6_EET2_RT_T0_T1_S7_, symObjAddr: 0x25BC, symBinAddr: 0x100005CEC, symSize: 0x118 }
  - { offsetInCU: 0xBCBC, offset: 0x2B0EB, size: 0x8, addend: 0x0, symName: __ZNSt3__16vectorI17SoftwareArchitectNS_9allocatorIS1_EEE26__swap_out_circular_bufferERNS_14__split_bufferIS1_RS3_EE, symObjAddr: 0x2D70, symBinAddr: 0x1000060F0, symSize: 0xC0 }
  - { offsetInCU: 0xE570, offset: 0x2D99F, size: 0x8, addend: 0x0, symName: _main, symObjAddr: 0x0, symBinAddr: 0x1000038E4, symSize: 0x1DCC }
  - { offsetInCU: 0x1C539, offset: 0x3B968, size: 0x8, addend: 0x0, symName: __ZNSt3__16vectorI8EmployeeNS_9allocatorIS1_EEE22__construct_one_at_endB7v160006IJRKS1_EEEvDpOT_, symObjAddr: 0x21F0, symBinAddr: 0x100005920, symSize: 0xB8 }
  - { offsetInCU: 0x1C90C, offset: 0x3BD3B, size: 0x8, addend: 0x0, symName: __ZNSt3__16vectorI8EmployeeNS_9allocatorIS1_EEE21__push_back_slow_pathIRKS1_EEvOT_, symObjAddr: 0x22A8, symBinAddr: 0x1000059D8, symSize: 0x268 }
  - { offsetInCU: 0x1DA9A, offset: 0x3CEC9, size: 0x8, addend: 0x0, symName: __ZN17SoftwareArchitectC2ERKS_, symObjAddr: 0x2CA8, symBinAddr: 0x100006028, symSize: 0xC8 }
  - { offsetInCU: 0x1DD3A, offset: 0x3D169, size: 0x8, addend: 0x0, symName: __ZNSt3__16vectorI17SoftwareArchitectNS_9allocatorIS1_EEE21__push_back_slow_pathIRKS1_EEvOT_, symObjAddr: 0x2B18, symBinAddr: 0x100005E98, symSize: 0x190 }
  - { offsetInCU: 0x1E68F, offset: 0x3DABE, size: 0x8, addend: 0x0, symName: __Z11printHeaderv, symObjAddr: 0x1DD8, symBinAddr: 0x1000056B0, symSize: 0x190 }
  - { offsetInCU: 0x1EBEC, offset: 0x3E01B, size: 0x8, addend: 0x0, symName: __ZNKSt3__16vectorIP8EmployeeNS_9allocatorIS2_EEE20__throw_out_of_rangeB7v160006Ev, symObjAddr: 0x3220, symBinAddr: 0x10000629C, symSize: 0x14 }
  - { offsetInCU: 0x1EC36, offset: 0x3E065, size: 0x8, addend: 0x0, symName: __ZNKSt3__16vectorIiNS_9allocatorIiEEE20__throw_out_of_rangeB7v160006Ev, symObjAddr: 0x32BC, symBinAddr: 0x1000062B0, symSize: 0x14 }
  - { offsetInCU: 0x1EC41, offset: 0x3E070, size: 0x8, addend: 0x0, symName: __ZNKSt3__16vectorIiNS_9allocatorIiEEE20__throw_out_of_rangeB7v160006Ev, symObjAddr: 0x32BC, symBinAddr: 0x1000062B0, symSize: 0x14 }
  - { offsetInCU: 0x1EC6A, offset: 0x3E099, size: 0x8, addend: 0x0, symName: __ZNSt3__16vectorI17SoftwareArchitectNS_9allocatorIS1_EEE26__swap_out_circular_bufferERNS_14__split_bufferIS1_RS3_EE.cold.1, symObjAddr: 0x32D0, symBinAddr: 0x100006DD4, symSize: 0x6C }
  - { offsetInCU: 0x1EC75, offset: 0x3E0A4, size: 0x8, addend: 0x0, symName: __ZN8EmployeeD1Ev, symObjAddr: 0x1F68, symBinAddr: 0x100005840, symSize: 0x64 }
  - { offsetInCU: 0x1F3CC, offset: 0x3E7FB, size: 0x8, addend: 0x0, symName: __ZN17SoftwareArchitectD1Ev, symObjAddr: 0x2060, symBinAddr: 0x1000058A4, symSize: 0x7C }
  - { offsetInCU: 0x2008B, offset: 0x3F4BA, size: 0x8, addend: 0x0, symName: __ZNKSt3__16vectorI8EmployeeNS_9allocatorIS1_EEE20__throw_length_errorB7v160006Ev, symObjAddr: 0x25A8, symBinAddr: 0x100005CD8, symSize: 0x14 }
  - { offsetInCU: 0x200B4, offset: 0x3F4E3, size: 0x8, addend: 0x0, symName: __ZNSt3__142__uninitialized_allocator_move_if_noexceptB7v160006INS_9allocatorI8EmployeeEENS_16reverse_iteratorIPS2_EES6_S6_EET2_RT_T0_T1_S7_, symObjAddr: 0x25BC, symBinAddr: 0x100005CEC, symSize: 0x118 }
  - { offsetInCU: 0x200BF, offset: 0x3F4EE, size: 0x8, addend: 0x0, symName: __ZNSt3__114__split_bufferI8EmployeeRNS_9allocatorIS1_EEED1Ev, symObjAddr: 0x2510, symBinAddr: 0x100005C40, symSize: 0x98 }
  - { offsetInCU: 0x20692, offset: 0x3FAC1, size: 0x8, addend: 0x0, symName: __ZNSt3__128__exception_guard_exceptionsINS_29_AllocatorDestroyRangeReverseINS_9allocatorI8EmployeeEENS_16reverse_iteratorIPS3_EEEEED1B7v160006Ev, symObjAddr: 0x26D4, symBinAddr: 0x100005E04, symSize: 0x94 }
  - { offsetInCU: 0x2170A, offset: 0x40B39, size: 0x8, addend: 0x0, symName: __ZNKSt3__16vectorI17SoftwareArchitectNS_9allocatorIS1_EEE20__throw_length_errorB7v160006Ev, symObjAddr: 0x2E60, symBinAddr: 0x1000061E0, symSize: 0x14 }
  - { offsetInCU: 0x21733, offset: 0x40B62, size: 0x8, addend: 0x0, symName: __ZNSt3__114__split_bufferI17SoftwareArchitectRNS_9allocatorIS1_EEE5clearB7v160006Ev, symObjAddr: 0x2E74, symBinAddr: 0x1000061F4, symSize: 0xA8 }
  - { offsetInCU: 0x2173E, offset: 0x40B6D, size: 0x8, addend: 0x0, symName: __ZNSt3__114__split_bufferI17SoftwareArchitectRNS_9allocatorIS1_EEED1Ev, symObjAddr: 0x2E30, symBinAddr: 0x1000061B0, symSize: 0x30 }
  - { offsetInCU: 0x218C3, offset: 0x40CF2, size: 0x8, addend: 0x0, symName: __ZNSt3__16vectorI17SoftwareArchitectNS_9allocatorIS1_EEE26__swap_out_circular_bufferERNS_14__split_bufferIS1_RS3_EE.cold.1, symObjAddr: 0x32D0, symBinAddr: 0x100006DD4, symSize: 0x6C }
  - { offsetInCU: 0x21C29, offset: 0x41058, size: 0x8, addend: 0x0, symName: __ZNSt3__114__split_bufferI17SoftwareArchitectRNS_9allocatorIS1_EEE5clearB7v160006Ev, symObjAddr: 0x2E74, symBinAddr: 0x1000061F4, symSize: 0xA8 }
  - { offsetInCU: 0x694C, offset: 0x48216, size: 0x8, addend: 0x0, symName: __ZN10ProgrammerC2Ev, symObjAddr: 0x0, symBinAddr: 0x1000062C4, symSize: 0xA0 }
  - { offsetInCU: 0x6F07, offset: 0x487D1, size: 0x8, addend: 0x0, symName: __ZN10ProgrammerC1Ev, symObjAddr: 0x110, symBinAddr: 0x100006364, symSize: 0x4 }
  - { offsetInCU: 0x6F35, offset: 0x487FF, size: 0x8, addend: 0x0, symName: __ZN10ProgrammerC1Ev, symObjAddr: 0x110, symBinAddr: 0x100006364, symSize: 0x4 }
  - { offsetInCU: 0x6F48, offset: 0x48812, size: 0x8, addend: 0x0, symName: __ZN10ProgrammerC2ENSt3__112basic_stringIcNS0_11char_traitsIcEENS0_9allocatorIcEEEElS6_diS6_iS6_, symObjAddr: 0x114, symBinAddr: 0x100006368, symSize: 0x168 }
  - { offsetInCU: 0x778B, offset: 0x49055, size: 0x8, addend: 0x0, symName: __ZN10ProgrammerC1ENSt3__112basic_stringIcNS0_11char_traitsIcEENS0_9allocatorIcEEEElS6_diS6_iS6_, symObjAddr: 0x27C, symBinAddr: 0x1000064D0, symSize: 0x4 }
  - { offsetInCU: 0x782E, offset: 0x490F8, size: 0x8, addend: 0x0, symName: __ZN10ProgrammerC1ENSt3__112basic_stringIcNS0_11char_traitsIcEENS0_9allocatorIcEEEElS6_diS6_iS6_, symObjAddr: 0x27C, symBinAddr: 0x1000064D0, symSize: 0x4 }
  - { offsetInCU: 0x787B, offset: 0x49145, size: 0x8, addend: 0x0, symName: __ZNK10Programmer17getSupervisorNameEv, symObjAddr: 0x280, symBinAddr: 0x1000064D4, symSize: 0xC }
  - { offsetInCU: 0x789D, offset: 0x49167, size: 0x8, addend: 0x0, symName: __ZNK10Programmer12getProjectIDEv, symObjAddr: 0x28C, symBinAddr: 0x1000064E0, symSize: 0x8 }
  - { offsetInCU: 0x78BF, offset: 0x49189, size: 0x8, addend: 0x0, symName: __ZNK10Programmer15getProgLanguageEv, symObjAddr: 0x294, symBinAddr: 0x1000064E8, symSize: 0xC }
  - { offsetInCU: 0x7A65, offset: 0x4932F, size: 0x8, addend: 0x0, symName: __ZN10Programmer5printEv, symObjAddr: 0x2A0, symBinAddr: 0x1000064F4, symSize: 0x344 }
  - { offsetInCU: 0x694C, offset: 0x50F90, size: 0x8, addend: 0x0, symName: __ZN17SoftwareArchitectC2Ev, symObjAddr: 0x0, symBinAddr: 0x100006838, symSize: 0x74 }
  - { offsetInCU: 0x6D9A, offset: 0x513DE, size: 0x8, addend: 0x0, symName: __ZN17SoftwareArchitectC1Ev, symObjAddr: 0xE4, symBinAddr: 0x1000068AC, symSize: 0x70 }
  - { offsetInCU: 0x6F9D, offset: 0x515E1, size: 0x8, addend: 0x0, symName: __ZN17SoftwareArchitectC1Ev.cold.1, symObjAddr: 0x918, symBinAddr: 0x100006E40, symSize: 0x54 }
  - { offsetInCU: 0x70B9, offset: 0x516FD, size: 0x8, addend: 0x0, symName: __ZN17SoftwareArchitectC2ENSt3__112basic_stringIcNS0_11char_traitsIcEENS0_9allocatorIcEEEElS6_diS6_ii, symObjAddr: 0x154, symBinAddr: 0x10000691C, symSize: 0x144 }
  - { offsetInCU: 0x7780, offset: 0x51DC4, size: 0x8, addend: 0x0, symName: __ZN17SoftwareArchitectC1ENSt3__112basic_stringIcNS0_11char_traitsIcEENS0_9allocatorIcEEEElS6_diS6_ii, symObjAddr: 0x298, symBinAddr: 0x100006A60, symSize: 0x4 }
  - { offsetInCU: 0x7822, offset: 0x51E66, size: 0x8, addend: 0x0, symName: __ZN17SoftwareArchitectC1ENSt3__112basic_stringIcNS0_11char_traitsIcEENS0_9allocatorIcEEEElS6_diS6_ii, symObjAddr: 0x298, symBinAddr: 0x100006A60, symSize: 0x4 }
  - { offsetInCU: 0x786F, offset: 0x51EB3, size: 0x8, addend: 0x0, symName: __ZNK17SoftwareArchitect17getSupervisorNameEv, symObjAddr: 0x29C, symBinAddr: 0x100006A64, symSize: 0xC }
  - { offsetInCU: 0x7891, offset: 0x51ED5, size: 0x8, addend: 0x0, symName: __ZNK17SoftwareArchitect12getProjectIDEv, symObjAddr: 0x2A8, symBinAddr: 0x100006A70, symSize: 0x8 }
  - { offsetInCU: 0x78B3, offset: 0x51EF7, size: 0x8, addend: 0x0, symName: __ZNK17SoftwareArchitect18getExperienceYearsEv, symObjAddr: 0x2B0, symBinAddr: 0x100006A78, symSize: 0x8 }
  - { offsetInCU: 0x7A59, offset: 0x5209D, size: 0x8, addend: 0x0, symName: __ZN17SoftwareArchitect5printEv, symObjAddr: 0x2B8, symBinAddr: 0x100006A80, symSize: 0x2D4 }
...
